; Function Attrs: mustprogress uwtable
define void @_ZN17grpc_event_engine12experimental15PollEventHandle13NotifyOnWriteEPNS0_18PosixEngineClosureE(ptr noundef nonnull align 16 dereferenceable(200) %this, ptr noundef %on_write) unnamed_addr #4 align 2 personality ptr @__gxx_personality_v0 {
entry:
  %lock = alloca %"class.absl::lts_20230802::ReleasableMutexLock", align 8
  %ref_count_.i = getelementptr inbounds i8, ptr %this, i64 16
  %0 = atomicrmw add ptr %ref_count_.i, i32 1 monotonic, align 4
  %mu_ = getelementptr inbounds i8, ptr %this, i64 8
  store ptr %mu_, ptr %lock, align 8
  tail call void @_ZN4absl12lts_202308025Mutex4LockEv(ptr noundef nonnull align 8 dereferenceable(8) %mu_)
  %write_closure_ = getelementptr inbounds i8, ptr %this, i64 192
  %call = invoke noundef i32 @_ZN17grpc_event_engine12experimental15PollEventHandle14NotifyOnLockedEPPNS0_18PosixEngineClosureES3_(ptr noundef nonnull align 16 dereferenceable(200) %this, ptr noundef nonnull %write_closure_, ptr noundef %on_write)
          to label %invoke.cont unwind label %lpad, !range !13

invoke.cont:                                      ; preds = %entry
  %tobool.not = icmp eq i32 %call, 0
  br i1 %tobool.not, label %if.then.i, label %if.then

if.then:                                          ; preds = %invoke.cont
  invoke void @_ZN4absl12lts_2023080219ReleasableMutexLock7ReleaseEv(ptr noundef nonnull align 8 dereferenceable(8) %lock)
          to label %invoke.cont2 unwind label %lpad

invoke.cont2:                                     ; preds = %if.then
  %poller_ = getelementptr inbounds i8, ptr %this, i64 88
  %1 = load ptr, ptr %poller_, align 8
  invoke void @_ZN17grpc_event_engine12experimental10PollPoller12KickExternalEb(ptr noundef nonnull align 8 dereferenceable(73) %1, i1 noundef zeroext false)
          to label %if.end unwind label %lpad

lpad:                                             ; preds = %invoke.cont2, %if.then, %entry
  %2 = landingpad { ptr, i32 }
          cleanup
  call void @_ZN4absl12lts_2023080219ReleasableMutexLockD2Ev(ptr noundef nonnull align 8 dereferenceable(8) %lock) #22
  resume { ptr, i32 } %2

if.end:                                           ; preds = %invoke.cont2
  %.pre = load ptr, ptr %lock, align 8
  %cmp.not.i = icmp eq ptr %.pre, null
  br i1 %cmp.not.i, label %_ZN4absl12lts_2023080219ReleasableMutexLockD2Ev.exit, label %if.then.i

if.then.i:                                        ; preds = %invoke.cont, %if.end
  %3 = phi ptr [ %.pre, %if.end ], [ %mu_, %invoke.cont ]
  invoke void @_ZN4absl12lts_202308025Mutex6UnlockEv(ptr noundef nonnull align 8 dereferenceable(8) %3)
          to label %_ZN4absl12lts_2023080219ReleasableMutexLockD2Ev.exit unwind label %terminate.lpad.i

terminate.lpad.i:                                 ; preds = %if.then.i
  %4 = landingpad { ptr, i32 }
          catch ptr null
  %5 = extractvalue { ptr, i32 } %4, 0
  call void @__clang_call_terminate(ptr %5) #24
  unreachable

_ZN4absl12lts_2023080219ReleasableMutexLockD2Ev.exit: ; preds = %if.end, %if.then.i
  %6 = atomicrmw sub ptr %ref_count_.i, i32 1 acq_rel, align 4
  %cmp.i = icmp eq i32 %6, 1
  br i1 %cmp.i, label %if.then.i2, label %_ZN17grpc_event_engine12experimental15PollEventHandle5UnrefEv.exit

if.then.i2:                                       ; preds = %_ZN4absl12lts_2023080219ReleasableMutexLockD2Ev.exit
  %on_done_.i = getelementptr inbounds i8, ptr %this, i64 176
  %7 = load ptr, ptr %on_done_.i, align 16
  %cmp2.not.i = icmp eq ptr %7, null
  br i1 %cmp2.not.i, label %delete.notnull.i, label %if.then3.i

if.then3.i:                                       ; preds = %if.then.i2
  %scheduler_.i = getelementptr inbounds i8, ptr %this, i64 80
  %8 = load ptr, ptr %scheduler_.i, align 16
  %vtable.i = load ptr, ptr %8, align 8
  %9 = load ptr, ptr %vtable.i, align 8
  call void %9(ptr noundef nonnull align 8 dereferenceable(8) %8, ptr noundef nonnull %7)
  br label %delete.notnull.i

delete.notnull.i:                                 ; preds = %if.then3.i, %if.then.i2
  %vtable5.i = load ptr, ptr %this, align 16
  %vfn6.i = getelementptr inbounds i8, ptr %vtable5.i, i64 96
  %10 = load ptr, ptr %vfn6.i, align 8
  call void %10(ptr noundef nonnull align 16 dereferenceable(200) %this) #22
  br label %_ZN17grpc_event_engine12experimental15PollEventHandle5UnrefEv.exit

_ZN17grpc_event_engine12experimental15PollEventHandle5UnrefEv.exit: ; preds = %_ZN4absl12lts_2023080219ReleasableMutexLockD2Ev.exit, %delete.notnull.i
  ret void
}